; Function Attrs: mustprogress uwtable
define void @_ZN32pxrInternal_v0_24__pxrReserved__25UsdImagingDataSourceGprim10InvalidateERKNS_7UsdPrimERKNS_7TfTokenERKSt6vectorIS4_SaIS4_EENS_34UsdImagingPropertyInvalidationTypeE(ptr dead_on_unwind noalias writable sret(%"class.pxrInternal_v0_24__pxrReserved__::HdDataSourceLocatorSet") align 8 %0, ptr noundef nonnull align 8 dereferenceable(32) %1, ptr noundef nonnull align 8 dereferenceable(8) %2, ptr noundef nonnull align 8 dereferenceable(24) %3, i32 noundef %4) local_unnamed_addr #0 align 2 personality ptr @__gxx_personality_v0 {
  %6 = alloca %"class.pxrInternal_v0_24__pxrReserved__::HdDataSourceLocatorSet", align 8
  tail call void @_ZN32pxrInternal_v0_24__pxrReserved__24UsdImagingDataSourcePrim10InvalidateERKNS_7UsdPrimERKNS_7TfTokenERKSt6vectorIS4_SaIS4_EENS_34UsdImagingPropertyInvalidationTypeE(ptr dead_on_unwind writable sret(%"class.pxrInternal_v0_24__pxrReserved__::HdDataSourceLocatorSet") align 8 %0, ptr noundef nonnull align 8 dereferenceable(32) %1, ptr noundef nonnull align 8 dereferenceable(8) %2, ptr noundef nonnull align 8 dereferenceable(24) %3, i32 noundef %4)
  %7 = load ptr, ptr %2, align 8
  %8 = icmp eq ptr %7, null
  br i1 %8, label %9, label %_ZN32pxrInternal_v0_24__pxrReserved__22HdDataSourceLocatorSetD2Ev.exit

9:                                                ; preds = %5
  %10 = invoke fastcc noundef nonnull align 8 dereferenceable(24) ptr @_ZN32pxrInternal_v0_24__pxrReserved__L25_GetCustomPrimvarMappingsERKNS_7UsdPrimE(ptr noundef nonnull align 8 dereferenceable(32) %1)
          to label %11 unwind label %52

11:                                               ; preds = %9
  %12 = load ptr, ptr %10, align 8
  %13 = getelementptr inbounds nuw i8, ptr %10, i64 8
  %14 = load ptr, ptr %13, align 8
  %15 = icmp eq ptr %12, %14
  br i1 %15, label %_ZN32pxrInternal_v0_24__pxrReserved__22HdDataSourceLocatorSetD2Ev.exit, label %16

16:                                               ; preds = %11
  invoke void @_ZN32pxrInternal_v0_24__pxrReserved__34UsdImagingDataSourceCustomPrimvars10InvalidateERKSt6vectorINS_7TfTokenESaIS2_EERKS1_INS0_7MappingESaIS7_EE(ptr dead_on_unwind nonnull writable sret(%"class.pxrInternal_v0_24__pxrReserved__::HdDataSourceLocatorSet") align 8 %6, ptr noundef nonnull align 8 dereferenceable(24) %3, ptr noundef nonnull align 8 dereferenceable(24) %10)
          to label %17 unwind label %52

17:                                               ; preds = %16
  invoke void @_ZN32pxrInternal_v0_24__pxrReserved__22HdDataSourceLocatorSet6insertEOS0_(ptr noundef nonnull align 8 dereferenceable(456) %0, ptr noundef nonnull align 8 dereferenceable(456) %6)
          to label %18 unwind label %54

18:                                               ; preds = %17
  %19 = getelementptr inbounds nuw i8, ptr %6, i64 452
  %20 = load i32, ptr %19, align 4
  %21 = icmp ult i32 %20, 9
  %22 = load ptr, ptr %6, align 8
  %spec.select.i.i.i.i.i = select i1 %21, ptr %6, ptr %22
  %23 = getelementptr inbounds nuw i8, ptr %6, i64 448
  %24 = load i32, ptr %23, align 8
  %25 = zext i32 %24 to i64
  %26 = getelementptr inbounds %"class.pxrInternal_v0_24__pxrReserved__::HdDataSourceLocator", ptr %spec.select.i.i.i.i.i, i64 %25
  %.not7.i.i.i = icmp eq i32 %24, 0
  br i1 %.not7.i.i.i, label %_ZN32pxrInternal_v0_24__pxrReserved__13TfSmallVectorINS_19HdDataSourceLocatorELj8EE9_DestructEv.exit.i.i, label %.lr.ph.i.i.i

.lr.ph.i.i.i:                                     ; preds = %18, %_ZN32pxrInternal_v0_24__pxrReserved__19HdDataSourceLocatorD2Ev.exit.i.i.i
  %.08.i.i.i = phi ptr [ %47, %_ZN32pxrInternal_v0_24__pxrReserved__19HdDataSourceLocatorD2Ev.exit.i.i.i ], [ %spec.select.i.i.i.i.i, %18 ]
  %27 = getelementptr inbounds nuw i8, ptr %.08.i.i.i, i64 52
  %28 = load i32, ptr %27, align 4
  %29 = icmp ult i32 %28, 7
  %30 = load ptr, ptr %.08.i.i.i, align 8
  %spec.select.i.i.i.i.i.i.i.i = select i1 %29, ptr %.08.i.i.i, ptr %30
  %31 = getelementptr inbounds nuw i8, ptr %.08.i.i.i, i64 48
  %32 = load i32, ptr %31, align 8
  %33 = zext i32 %32 to i64
  %34 = getelementptr inbounds %"class.pxrInternal_v0_24__pxrReserved__::TfToken", ptr %spec.select.i.i.i.i.i.i.i.i, i64 %33
  %.not7.i.i.i.i.i.i = icmp eq i32 %32, 0
  br i1 %.not7.i.i.i.i.i.i, label %_ZN32pxrInternal_v0_24__pxrReserved__13TfSmallVectorINS_7TfTokenELj6EE9_DestructEv.exit.i.i.i.i.i, label %.lr.ph.i.i.i.i.i.i

.lr.ph.i.i.i.i.i.i:                               ; preds = %.lr.ph.i.i.i, %_ZN32pxrInternal_v0_24__pxrReserved__7TfTokenD2Ev.exit.i.i.i.i.i.i
  %.08.i.i.i.i.i.i = phi ptr [ %42, %_ZN32pxrInternal_v0_24__pxrReserved__7TfTokenD2Ev.exit.i.i.i.i.i.i ], [ %spec.select.i.i.i.i.i.i.i.i, %.lr.ph.i.i.i ]
  %35 = load ptr, ptr %.08.i.i.i.i.i.i, align 8
  %36 = ptrtoint ptr %35 to i64
  %37 = and i64 %36, 7
  %.not.i.i.i.i.i.i.i.i = icmp eq i64 %37, 0
  br i1 %.not.i.i.i.i.i.i.i.i, label %_ZN32pxrInternal_v0_24__pxrReserved__7TfTokenD2Ev.exit.i.i.i.i.i.i, label %38

38:                                               ; preds = %.lr.ph.i.i.i.i.i.i
  %39 = and i64 %36, -8
  %40 = inttoptr i64 %39 to ptr
  %41 = atomicrmw sub ptr %40, i32 2 release, align 4
  br label %_ZN32pxrInternal_v0_24__pxrReserved__7TfTokenD2Ev.exit.i.i.i.i.i.i

_ZN32pxrInternal_v0_24__pxrReserved__7TfTokenD2Ev.exit.i.i.i.i.i.i: ; preds = %38, %.lr.ph.i.i.i.i.i.i
  %42 = getelementptr inbounds i8, ptr %.08.i.i.i.i.i.i, i64 8
  %.not.i.i.i.i.i.i = icmp eq ptr %42, %34
  br i1 %.not.i.i.i.i.i.i, label %_ZN32pxrInternal_v0_24__pxrReserved__13TfSmallVectorINS_7TfTokenELj6EE9_DestructEv.exit.loopexit.i.i.i.i.i, label %.lr.ph.i.i.i.i.i.i, !llvm.loop !12

_ZN32pxrInternal_v0_24__pxrReserved__13TfSmallVectorINS_7TfTokenELj6EE9_DestructEv.exit.loopexit.i.i.i.i.i: ; preds = %_ZN32pxrInternal_v0_24__pxrReserved__7TfTokenD2Ev.exit.i.i.i.i.i.i
  %.pre.i.i.i.i.i = load i32, ptr %27, align 4
  br label %_ZN32pxrInternal_v0_24__pxrReserved__13TfSmallVectorINS_7TfTokenELj6EE9_DestructEv.exit.i.i.i.i.i

_ZN32pxrInternal_v0_24__pxrReserved__13TfSmallVectorINS_7TfTokenELj6EE9_DestructEv.exit.i.i.i.i.i: ; preds = %_ZN32pxrInternal_v0_24__pxrReserved__13TfSmallVectorINS_7TfTokenELj6EE9_DestructEv.exit.loopexit.i.i.i.i.i, %.lr.ph.i.i.i
  %43 = phi i32 [ %.pre.i.i.i.i.i, %_ZN32pxrInternal_v0_24__pxrReserved__13TfSmallVectorINS_7TfTokenELj6EE9_DestructEv.exit.loopexit.i.i.i.i.i ], [ %28, %.lr.ph.i.i.i ]
  %44 = icmp ult i32 %43, 7
  br i1 %44, label %_ZN32pxrInternal_v0_24__pxrReserved__19HdDataSourceLocatorD2Ev.exit.i.i.i, label %45

45:                                               ; preds = %_ZN32pxrInternal_v0_24__pxrReserved__13TfSmallVectorINS_7TfTokenELj6EE9_DestructEv.exit.i.i.i.i.i
  %46 = load ptr, ptr %.08.i.i.i, align 8
  call void @free(ptr noundef %46) #16
  br label %_ZN32pxrInternal_v0_24__pxrReserved__19HdDataSourceLocatorD2Ev.exit.i.i.i

_ZN32pxrInternal_v0_24__pxrReserved__19HdDataSourceLocatorD2Ev.exit.i.i.i: ; preds = %45, %_ZN32pxrInternal_v0_24__pxrReserved__13TfSmallVectorINS_7TfTokenELj6EE9_DestructEv.exit.i.i.i.i.i
  %47 = getelementptr inbounds i8, ptr %.08.i.i.i, i64 56
  %.not.i.i.i = icmp eq ptr %47, %26
  br i1 %.not.i.i.i, label %_ZN32pxrInternal_v0_24__pxrReserved__13TfSmallVectorINS_19HdDataSourceLocatorELj8EE9_DestructEv.exit.loopexit.i.i, label %.lr.ph.i.i.i, !llvm.loop !14

_ZN32pxrInternal_v0_24__pxrReserved__13TfSmallVectorINS_19HdDataSourceLocatorELj8EE9_DestructEv.exit.loopexit.i.i: ; preds = %_ZN32pxrInternal_v0_24__pxrReserved__19HdDataSourceLocatorD2Ev.exit.i.i.i
  %.pre.i.i = load i32, ptr %19, align 4
  br label %_ZN32pxrInternal_v0_24__pxrReserved__13TfSmallVectorINS_19HdDataSourceLocatorELj8EE9_DestructEv.exit.i.i

_ZN32pxrInternal_v0_24__pxrReserved__13TfSmallVectorINS_19HdDataSourceLocatorELj8EE9_DestructEv.exit.i.i: ; preds = %_ZN32pxrInternal_v0_24__pxrReserved__13TfSmallVectorINS_19HdDataSourceLocatorELj8EE9_DestructEv.exit.loopexit.i.i, %18
  %48 = phi i32 [ %.pre.i.i, %_ZN32pxrInternal_v0_24__pxrReserved__13TfSmallVectorINS_19HdDataSourceLocatorELj8EE9_DestructEv.exit.loopexit.i.i ], [ %20, %18 ]
  %49 = icmp ult i32 %48, 9
  br i1 %49, label %_ZN32pxrInternal_v0_24__pxrReserved__22HdDataSourceLocatorSetD2Ev.exit, label %50

50:                                               ; preds = %_ZN32pxrInternal_v0_24__pxrReserved__13TfSmallVectorINS_19HdDataSourceLocatorELj8EE9_DestructEv.exit.i.i
  %51 = load ptr, ptr %6, align 8
  call void @free(ptr noundef %51) #16
  br label %_ZN32pxrInternal_v0_24__pxrReserved__22HdDataSourceLocatorSetD2Ev.exit

52:                                               ; preds = %16, %9
  %53 = landingpad { ptr, i32 }
          cleanup
  br label %56

54:                                               ; preds = %17
  %55 = landingpad { ptr, i32 }
          cleanup
  call void @_ZN32pxrInternal_v0_24__pxrReserved__22HdDataSourceLocatorSetD2Ev(ptr noundef nonnull align 8 dereferenceable(456) %6) #16
  br label %56

_ZN32pxrInternal_v0_24__pxrReserved__22HdDataSourceLocatorSetD2Ev.exit: ; preds = %50, %_ZN32pxrInternal_v0_24__pxrReserved__13TfSmallVectorINS_19HdDataSourceLocatorELj8EE9_DestructEv.exit.i.i, %5, %11
  ret void

56:                                               ; preds = %54, %52
  %.pn = phi { ptr, i32 } [ %55, %54 ], [ %53, %52 ]
  call void @_ZN32pxrInternal_v0_24__pxrReserved__22HdDataSourceLocatorSetD2Ev(ptr noundef nonnull align 8 dereferenceable(456) %0) #16
  resume { ptr, i32 } %.pn
}